target datalayout = "e-m:e-p270:32:32-p271:32:32-p272:64:64-i64:64-i128:128-f80:128-n8:16:32:64-S128"
target triple = "x86_64-pc-linux-gnu"

%struct.pmix_object_t = type { %union.pthread_mutex_t, ptr, i32, %struct.pmix_tma }
%struct.pmix_tma = type { ptr, ptr, ptr, ptr, ptr, ptr, ptr, ptr }
%union.pthread_mutex_t = type { %struct.__pthread_mutex_s }
%struct.__pthread_mutex_s = type { i32, i32, i32, i32, i32, i16, i16, %struct.__pthread_internal_list }
%struct.__pthread_internal_list = type { ptr, ptr }
%struct.pmix_events_t = type { %struct.pmix_object_t, i64, ptr, ptr, %struct.pmix_list_t, %struct.pmix_list_t, %struct.pmix_list_t, %struct.pmix_list_t }
%struct.pmix_list_t = type { %struct.pmix_object_t, %struct.pmix_list_item_t, i64 }
%struct.pmix_list_item_t = type { %struct.pmix_object_t, ptr, ptr, i32 }
%struct.pmix_class_t = type { ptr, ptr, ptr, ptr, i32, i32, ptr, ptr, i64 }

@pmix_class_init_epoch = external global i32, align 4
@pmix_list_t_class = external global %struct.pmix_class_t, align 8

; Function Attrs: inlinehint nounwind uwtable
define internal void @pmix_obj_run_constructors(ptr noundef %0) #2 {
  %2 = alloca ptr, align 8
  %3 = alloca ptr, align 8
  store ptr %0, ptr %2, align 8, !tbaa !124
  call void @llvm.lifetime.start.p0(i64 8, ptr %3) #13
  %4 = load ptr, ptr %2, align 8, !tbaa !124
  %5 = getelementptr inbounds nuw %struct.pmix_object_t, ptr %4, i32 0, i32 1
  %6 = load ptr, ptr %5, align 8, !tbaa !153
  %7 = getelementptr inbounds nuw %struct.pmix_class_t, ptr %6, i32 0, i32 6
  %8 = load ptr, ptr %7, align 8, !tbaa !281
  store ptr %8, ptr %3, align 8, !tbaa !15
  br label %9

9:                                                ; preds = %13, %1
  %10 = load ptr, ptr %3, align 8, !tbaa !15
  %11 = load ptr, ptr %10, align 8, !tbaa !15
  %12 = icmp ne ptr null, %11
  br i1 %12, label %13, label %19

13:                                               ; preds = %9
  %14 = load ptr, ptr %3, align 8, !tbaa !15
  %15 = load ptr, ptr %14, align 8, !tbaa !15
  %16 = load ptr, ptr %2, align 8, !tbaa !124
  call void %15(ptr noundef %16)
  %17 = load ptr, ptr %3, align 8, !tbaa !15
  %18 = getelementptr inbounds nuw ptr, ptr %17, i32 1
  store ptr %18, ptr %3, align 8, !tbaa !15
  br label %9, !llvm.loop !282

19:                                               ; preds = %9
  call void @llvm.lifetime.end.p0(i64 8, ptr %3) #13
  ret void
}

; Function Attrs: inlinehint nounwind uwtable
define internal void @pmix_obj_construct_tma(ptr noundef %0, ptr noundef %1) #2 {
  %3 = alloca ptr, align 8
  %4 = alloca ptr, align 8
  store ptr %0, ptr %3, align 8, !tbaa !124
  store ptr %1, ptr %4, align 8, !tbaa !157
  %5 = load ptr, ptr %4, align 8, !tbaa !157
  %6 = icmp eq ptr null, %5
  br i1 %6, label %7, label %32

7:                                                ; preds = %2
  %8 = load ptr, ptr %3, align 8, !tbaa !124
  %9 = getelementptr inbounds nuw %struct.pmix_object_t, ptr %8, i32 0, i32 3
  %10 = getelementptr inbounds nuw %struct.pmix_tma, ptr %9, i32 0, i32 0
  store ptr null, ptr %10, align 8, !tbaa !163
  %11 = load ptr, ptr %3, align 8, !tbaa !124
  %12 = getelementptr inbounds nuw %struct.pmix_object_t, ptr %11, i32 0, i32 3
  %13 = getelementptr inbounds nuw %struct.pmix_tma, ptr %12, i32 0, i32 1
  store ptr null, ptr %13, align 8, !tbaa !164
  %14 = load ptr, ptr %3, align 8, !tbaa !124
  %15 = getelementptr inbounds nuw %struct.pmix_object_t, ptr %14, i32 0, i32 3
  %16 = getelementptr inbounds nuw %struct.pmix_tma, ptr %15, i32 0, i32 2
  store ptr null, ptr %16, align 8, !tbaa !165
  %17 = load ptr, ptr %3, align 8, !tbaa !124
  %18 = getelementptr inbounds nuw %struct.pmix_object_t, ptr %17, i32 0, i32 3
  %19 = getelementptr inbounds nuw %struct.pmix_tma, ptr %18, i32 0, i32 3
  store ptr null, ptr %19, align 8, !tbaa !166
  %20 = load ptr, ptr %3, align 8, !tbaa !124
  %21 = getelementptr inbounds nuw %struct.pmix_object_t, ptr %20, i32 0, i32 3
  %22 = getelementptr inbounds nuw %struct.pmix_tma, ptr %21, i32 0, i32 4
  store ptr null, ptr %22, align 8, !tbaa !292
  %23 = load ptr, ptr %3, align 8, !tbaa !124
  %24 = getelementptr inbounds nuw %struct.pmix_object_t, ptr %23, i32 0, i32 3
  %25 = getelementptr inbounds nuw %struct.pmix_tma, ptr %24, i32 0, i32 5
  store ptr null, ptr %25, align 8, !tbaa !126
  %26 = load ptr, ptr %3, align 8, !tbaa !124
  %27 = getelementptr inbounds nuw %struct.pmix_object_t, ptr %26, i32 0, i32 3
  %28 = getelementptr inbounds nuw %struct.pmix_tma, ptr %27, i32 0, i32 6
  store ptr null, ptr %28, align 8, !tbaa !167
  %29 = load ptr, ptr %3, align 8, !tbaa !124
  %30 = getelementptr inbounds nuw %struct.pmix_object_t, ptr %29, i32 0, i32 3
  %31 = getelementptr inbounds nuw %struct.pmix_tma, ptr %30, i32 0, i32 7
  store ptr null, ptr %31, align 8, !tbaa !168
  br label %36

32:                                               ; preds = %2
  %33 = load ptr, ptr %3, align 8, !tbaa !124
  %34 = getelementptr inbounds nuw %struct.pmix_object_t, ptr %33, i32 0, i32 3
  %35 = load ptr, ptr %4, align 8, !tbaa !157
  call void @llvm.memcpy.p0.p0.i64(ptr align 8 %34, ptr align 8 %35, i64 64, i1 false), !tbaa.struct !169
  br label %36

36:                                               ; preds = %32, %7
  ret void
}

; Function Attrs: nounwind uwtable
define internal void @evcon(ptr noundef %0) #0 {
  %2 = alloca ptr, align 8
  store ptr %0, ptr %2, align 8, !tbaa !15
  %3 = load ptr, ptr %2, align 8, !tbaa !15
  %4 = getelementptr inbounds nuw %struct.pmix_events_t, ptr %3, i32 0, i32 1
  store i64 0, ptr %4, align 8, !tbaa !271
  %5 = load ptr, ptr %2, align 8, !tbaa !15
  %6 = getelementptr inbounds nuw %struct.pmix_events_t, ptr %5, i32 0, i32 2
  store ptr null, ptr %6, align 8, !tbaa !272
  %7 = load ptr, ptr %2, align 8, !tbaa !15
  %8 = getelementptr inbounds nuw %struct.pmix_events_t, ptr %7, i32 0, i32 3
  store ptr null, ptr %8, align 8, !tbaa !273
  br label %9

9:                                                ; preds = %1
  br label %10

10:                                               ; preds = %9
  br label %11

11:                                               ; preds = %10
  %12 = load i32, ptr @pmix_class_init_epoch, align 4, !tbaa !3
  %13 = load i32, ptr getelementptr inbounds nuw (%struct.pmix_class_t, ptr @pmix_list_t_class, i32 0, i32 4), align 8, !tbaa !162
  %14 = icmp ne i32 %12, %13
  br i1 %14, label %15, label %16

15:                                               ; preds = %11
  call void @pmix_class_initialize(ptr noundef @pmix_list_t_class)
  br label %16

16:                                               ; preds = %15, %11
  %17 = load ptr, ptr %2, align 8, !tbaa !15
  %18 = getelementptr inbounds nuw %struct.pmix_events_t, ptr %17, i32 0, i32 4
  %19 = getelementptr inbounds nuw %struct.pmix_object_t, ptr %18, i32 0, i32 1
  store ptr @pmix_list_t_class, ptr %19, align 8, !tbaa !153
  %20 = load ptr, ptr %2, align 8, !tbaa !15
  %21 = getelementptr inbounds nuw %struct.pmix_events_t, ptr %20, i32 0, i32 4
  %22 = getelementptr inbounds nuw %struct.pmix_object_t, ptr %21, i32 0, i32 2
  store i32 1, ptr %22, align 8, !tbaa !152
  %23 = load ptr, ptr %2, align 8, !tbaa !15
  %24 = getelementptr inbounds nuw %struct.pmix_events_t, ptr %23, i32 0, i32 4
  call void @pmix_obj_construct_tma(ptr noundef %24, ptr noundef null)
  %25 = load ptr, ptr %2, align 8, !tbaa !15
  %26 = getelementptr inbounds nuw %struct.pmix_events_t, ptr %25, i32 0, i32 4
  call void @pmix_obj_run_constructors(ptr noundef %26)
  br label %27

27:                                               ; preds = %16
  br label %28

28:                                               ; preds = %27
  br label %29

29:                                               ; preds = %28
  br label %30

30:                                               ; preds = %29
  br label %31

31:                                               ; preds = %30
  br label %32

32:                                               ; preds = %31
  %33 = load i32, ptr @pmix_class_init_epoch, align 4, !tbaa !3
  %34 = load i32, ptr getelementptr inbounds nuw (%struct.pmix_class_t, ptr @pmix_list_t_class, i32 0, i32 4), align 8, !tbaa !162
  %35 = icmp ne i32 %33, %34
  br i1 %35, label %36, label %37

36:                                               ; preds = %32
  call void @pmix_class_initialize(ptr noundef @pmix_list_t_class)
  br label %37

37:                                               ; preds = %36, %32
  %38 = load ptr, ptr %2, align 8, !tbaa !15
  %39 = getelementptr inbounds nuw %struct.pmix_events_t, ptr %38, i32 0, i32 5
  %40 = getelementptr inbounds nuw %struct.pmix_object_t, ptr %39, i32 0, i32 1
  store ptr @pmix_list_t_class, ptr %40, align 8, !tbaa !153
  %41 = load ptr, ptr %2, align 8, !tbaa !15
  %42 = getelementptr inbounds nuw %struct.pmix_events_t, ptr %41, i32 0, i32 5
  %43 = getelementptr inbounds nuw %struct.pmix_object_t, ptr %42, i32 0, i32 2
  store i32 1, ptr %43, align 8, !tbaa !152
  %44 = load ptr, ptr %2, align 8, !tbaa !15
  %45 = getelementptr inbounds nuw %struct.pmix_events_t, ptr %44, i32 0, i32 5
  call void @pmix_obj_construct_tma(ptr noundef %45, ptr noundef null)
  %46 = load ptr, ptr %2, align 8, !tbaa !15
  %47 = getelementptr inbounds nuw %struct.pmix_events_t, ptr %46, i32 0, i32 5
  call void @pmix_obj_run_constructors(ptr noundef %47)
  br label %48

48:                                               ; preds = %37
  br label %49

49:                                               ; preds = %48
  br label %50

50:                                               ; preds = %49
  br label %51

51:                                               ; preds = %50
  br label %52

52:                                               ; preds = %51
  br label %53

53:                                               ; preds = %52
  %54 = load i32, ptr @pmix_class_init_epoch, align 4, !tbaa !3
  %55 = load i32, ptr getelementptr inbounds nuw (%struct.pmix_class_t, ptr @pmix_list_t_class, i32 0, i32 4), align 8, !tbaa !162
  %56 = icmp ne i32 %54, %55
  br i1 %56, label %57, label %58

57:                                               ; preds = %53
  call void @pmix_class_initialize(ptr noundef @pmix_list_t_class)
  br label %58

58:                                               ; preds = %57, %53
  %59 = load ptr, ptr %2, align 8, !tbaa !15
  %60 = getelementptr inbounds nuw %struct.pmix_events_t, ptr %59, i32 0, i32 6
  %61 = getelementptr inbounds nuw %struct.pmix_object_t, ptr %60, i32 0, i32 1
  store ptr @pmix_list_t_class, ptr %61, align 8, !tbaa !153
  %62 = load ptr, ptr %2, align 8, !tbaa !15
  %63 = getelementptr inbounds nuw %struct.pmix_events_t, ptr %62, i32 0, i32 6
  %64 = getelementptr inbounds nuw %struct.pmix_object_t, ptr %63, i32 0, i32 2
  store i32 1, ptr %64, align 8, !tbaa !152
  %65 = load ptr, ptr %2, align 8, !tbaa !15
  %66 = getelementptr inbounds nuw %struct.pmix_events_t, ptr %65, i32 0, i32 6
  call void @pmix_obj_construct_tma(ptr noundef %66, ptr noundef null)
  %67 = load ptr, ptr %2, align 8, !tbaa !15
  %68 = getelementptr inbounds nuw %struct.pmix_events_t, ptr %67, i32 0, i32 6
  call void @pmix_obj_run_constructors(ptr noundef %68)
  br label %69

69:                                               ; preds = %58
  br label %70

70:                                               ; preds = %69
  br label %71

71:                                               ; preds = %70
  br label %72

72:                                               ; preds = %71
  br label %73

73:                                               ; preds = %72
  br label %74

74:                                               ; preds = %73
  %75 = load i32, ptr @pmix_class_init_epoch, align 4, !tbaa !3
  %76 = load i32, ptr getelementptr inbounds nuw (%struct.pmix_class_t, ptr @pmix_list_t_class, i32 0, i32 4), align 8, !tbaa !162
  %77 = icmp ne i32 %75, %76
  br i1 %77, label %78, label %79

78:                                               ; preds = %74
  call void @pmix_class_initialize(ptr noundef @pmix_list_t_class)
  br label %79

79:                                               ; preds = %78, %74
  %80 = load ptr, ptr %2, align 8, !tbaa !15
  %81 = getelementptr inbounds nuw %struct.pmix_events_t, ptr %80, i32 0, i32 7
  %82 = getelementptr inbounds nuw %struct.pmix_object_t, ptr %81, i32 0, i32 1
  store ptr @pmix_list_t_class, ptr %82, align 8, !tbaa !153
  %83 = load ptr, ptr %2, align 8, !tbaa !15
  %84 = getelementptr inbounds nuw %struct.pmix_events_t, ptr %83, i32 0, i32 7
  %85 = getelementptr inbounds nuw %struct.pmix_object_t, ptr %84, i32 0, i32 2
  store i32 1, ptr %85, align 8, !tbaa !152
  %86 = load ptr, ptr %2, align 8, !tbaa !15
  %87 = getelementptr inbounds nuw %struct.pmix_events_t, ptr %86, i32 0, i32 7
  call void @pmix_obj_construct_tma(ptr noundef %87, ptr noundef null)
  %88 = load ptr, ptr %2, align 8, !tbaa !15
  %89 = getelementptr inbounds nuw %struct.pmix_events_t, ptr %88, i32 0, i32 7
  call void @pmix_obj_run_constructors(ptr noundef %89)
  br label %90

90:                                               ; preds = %79
  br label %91

91:                                               ; preds = %90
  br label %92

92:                                               ; preds = %91
  ret void
}