; Function Attrs: nounwind uwtable
define internal void @evcon(ptr noundef initializes((120, 144), (184, 196), (200, 264)) %0) #0 {
  %2 = getelementptr inbounds nuw i8, ptr %0, i64 120
  tail call void @llvm.memset.p0.i64(ptr noundef nonnull align 8 dereferenceable(24) %2, i8 0, i64 24, i1 false)
  %3 = load i32, ptr @pmix_class_init_epoch, align 4, !tbaa !66
  %4 = load i32, ptr getelementptr inbounds nuw (i8, ptr @pmix_list_t_class, i64 32), align 8, !tbaa !67
  %.not = icmp eq i32 %3, %4
  br i1 %.not, label %6, label %5

5:                                                ; preds = %1
  tail call void @pmix_class_initialize(ptr noundef nonnull @pmix_list_t_class) #15
  br label %6

6:                                                ; preds = %5, %1
  %7 = getelementptr inbounds nuw i8, ptr %0, i64 144
  %8 = getelementptr inbounds nuw i8, ptr %0, i64 184
  store ptr @pmix_list_t_class, ptr %8, align 8, !tbaa !68
  %9 = getelementptr inbounds nuw i8, ptr %0, i64 192
  store i32 1, ptr %9, align 8, !tbaa !69
  %10 = getelementptr inbounds nuw i8, ptr %0, i64 200
  tail call void @llvm.memset.p0.i64(ptr noundef nonnull align 8 dereferenceable(64) %10, i8 0, i64 64, i1 false)
  %11 = load ptr, ptr getelementptr inbounds nuw (i8, ptr @pmix_list_t_class, i64 40), align 8, !tbaa !70
  %12 = load ptr, ptr %11, align 8, !tbaa !71
  %.not6.i = icmp eq ptr %12, null
  br i1 %.not6.i, label %pmix_obj_run_constructors.exit, label %.lr.ph.i

.lr.ph.i:                                         ; preds = %6, %.lr.ph.i
  %13 = phi ptr [ %15, %.lr.ph.i ], [ %12, %6 ]
  %.07.i = phi ptr [ %14, %.lr.ph.i ], [ %11, %6 ]
  tail call void %13(ptr noundef nonnull %7) #15
  %14 = getelementptr inbounds nuw i8, ptr %.07.i, i64 8
  %15 = load ptr, ptr %14, align 8, !tbaa !71
  %.not.i = icmp eq ptr %15, null
  br i1 %.not.i, label %pmix_obj_run_constructors.exit, label %.lr.ph.i, !llvm.loop !72

pmix_obj_run_constructors.exit:                   ; preds = %.lr.ph.i, %6
  %16 = load i32, ptr @pmix_class_init_epoch, align 4, !tbaa !66
  %17 = load i32, ptr getelementptr inbounds nuw (i8, ptr @pmix_list_t_class, i64 32), align 8, !tbaa !67
  %.not19 = icmp eq i32 %16, %17
  br i1 %.not19, label %19, label %18

18:                                               ; preds = %pmix_obj_run_constructors.exit
  tail call void @pmix_class_initialize(ptr noundef nonnull @pmix_list_t_class) #15
  br label %19

19:                                               ; preds = %18, %pmix_obj_run_constructors.exit
  %20 = getelementptr inbounds nuw i8, ptr %0, i64 416
  %21 = getelementptr inbounds nuw i8, ptr %0, i64 456
  store ptr @pmix_list_t_class, ptr %21, align 8, !tbaa !68
  %22 = getelementptr inbounds nuw i8, ptr %0, i64 464
  store i32 1, ptr %22, align 8, !tbaa !69
  %23 = getelementptr inbounds nuw i8, ptr %0, i64 472
  tail call void @llvm.memset.p0.i64(ptr noundef nonnull align 8 dereferenceable(64) %23, i8 0, i64 64, i1 false)
  %24 = load ptr, ptr getelementptr inbounds nuw (i8, ptr @pmix_list_t_class, i64 40), align 8, !tbaa !70
  %25 = load ptr, ptr %24, align 8, !tbaa !71
  %.not6.i22 = icmp eq ptr %25, null
  br i1 %.not6.i22, label %pmix_obj_run_constructors.exit26, label %.lr.ph.i23

.lr.ph.i23:                                       ; preds = %19, %.lr.ph.i23
  %26 = phi ptr [ %28, %.lr.ph.i23 ], [ %25, %19 ]
  %.07.i24 = phi ptr [ %27, %.lr.ph.i23 ], [ %24, %19 ]
  tail call void %26(ptr noundef nonnull %20) #15
  %27 = getelementptr inbounds nuw i8, ptr %.07.i24, i64 8
  %28 = load ptr, ptr %27, align 8, !tbaa !71
  %.not.i25 = icmp eq ptr %28, null
  br i1 %.not.i25, label %pmix_obj_run_constructors.exit26, label %.lr.ph.i23, !llvm.loop !72

pmix_obj_run_constructors.exit26:                 ; preds = %.lr.ph.i23, %19
  %29 = load i32, ptr @pmix_class_init_epoch, align 4, !tbaa !66
  %30 = load i32, ptr getelementptr inbounds nuw (i8, ptr @pmix_list_t_class, i64 32), align 8, !tbaa !67
  %.not20 = icmp eq i32 %29, %30
  br i1 %.not20, label %32, label %31

31:                                               ; preds = %pmix_obj_run_constructors.exit26
  tail call void @pmix_class_initialize(ptr noundef nonnull @pmix_list_t_class) #15
  br label %32

32:                                               ; preds = %31, %pmix_obj_run_constructors.exit26
  %33 = getelementptr inbounds nuw i8, ptr %0, i64 688
  %34 = getelementptr inbounds nuw i8, ptr %0, i64 728
  store ptr @pmix_list_t_class, ptr %34, align 8, !tbaa !68
  %35 = getelementptr inbounds nuw i8, ptr %0, i64 736
  store i32 1, ptr %35, align 8, !tbaa !69
  %36 = getelementptr inbounds nuw i8, ptr %0, i64 744
  tail call void @llvm.memset.p0.i64(ptr noundef nonnull align 8 dereferenceable(64) %36, i8 0, i64 64, i1 false)
  %37 = load ptr, ptr getelementptr inbounds nuw (i8, ptr @pmix_list_t_class, i64 40), align 8, !tbaa !70
  %38 = load ptr, ptr %37, align 8, !tbaa !71
  %.not6.i27 = icmp eq ptr %38, null
  br i1 %.not6.i27, label %pmix_obj_run_constructors.exit31, label %.lr.ph.i28

.lr.ph.i28:                                       ; preds = %32, %.lr.ph.i28
  %39 = phi ptr [ %41, %.lr.ph.i28 ], [ %38, %32 ]
  %.07.i29 = phi ptr [ %40, %.lr.ph.i28 ], [ %37, %32 ]
  tail call void %39(ptr noundef nonnull %33) #15
  %40 = getelementptr inbounds nuw i8, ptr %.07.i29, i64 8
  %41 = load ptr, ptr %40, align 8, !tbaa !71
  %.not.i30 = icmp eq ptr %41, null
  br i1 %.not.i30, label %pmix_obj_run_constructors.exit31, label %.lr.ph.i28, !llvm.loop !72

pmix_obj_run_constructors.exit31:                 ; preds = %.lr.ph.i28, %32
  %42 = load i32, ptr @pmix_class_init_epoch, align 4, !tbaa !66
  %43 = load i32, ptr getelementptr inbounds nuw (i8, ptr @pmix_list_t_class, i64 32), align 8, !tbaa !67
  %.not21 = icmp eq i32 %42, %43
  br i1 %.not21, label %45, label %44

44:                                               ; preds = %pmix_obj_run_constructors.exit31
  tail call void @pmix_class_initialize(ptr noundef nonnull @pmix_list_t_class) #15
  br label %45

45:                                               ; preds = %44, %pmix_obj_run_constructors.exit31
  %46 = getelementptr inbounds nuw i8, ptr %0, i64 960
  %47 = getelementptr inbounds nuw i8, ptr %0, i64 1000
  store ptr @pmix_list_t_class, ptr %47, align 8, !tbaa !68
  %48 = getelementptr inbounds nuw i8, ptr %0, i64 1008
  store i32 1, ptr %48, align 8, !tbaa !69
  %49 = getelementptr inbounds nuw i8, ptr %0, i64 1016
  tail call void @llvm.memset.p0.i64(ptr noundef nonnull align 8 dereferenceable(64) %49, i8 0, i64 64, i1 false)
  %50 = load ptr, ptr getelementptr inbounds nuw (i8, ptr @pmix_list_t_class, i64 40), align 8, !tbaa !70
  %51 = load ptr, ptr %50, align 8, !tbaa !71
  %.not6.i32 = icmp eq ptr %51, null
  br i1 %.not6.i32, label %pmix_obj_run_constructors.exit36, label %.lr.ph.i33

.lr.ph.i33:                                       ; preds = %45, %.lr.ph.i33
  %52 = phi ptr [ %54, %.lr.ph.i33 ], [ %51, %45 ]
  %.07.i34 = phi ptr [ %53, %.lr.ph.i33 ], [ %50, %45 ]
  tail call void %52(ptr noundef nonnull %46) #15
  %53 = getelementptr inbounds nuw i8, ptr %.07.i34, i64 8
  %54 = load ptr, ptr %53, align 8, !tbaa !71
  %.not.i35 = icmp eq ptr %54, null
  br i1 %.not.i35, label %pmix_obj_run_constructors.exit36, label %.lr.ph.i33, !llvm.loop !72

pmix_obj_run_constructors.exit36:                 ; preds = %.lr.ph.i33, %45
  ret void
}